; ModuleID = '11/225.c'
source_filename = "11/225.c"
target datalayout = "e-m:e-p270:32:32-p271:32:32-p272:64:64-i64:64-f80:128-n8:16:32:64-S128"
target triple = "x86_64-pc-linux-gnu"

@.str = private unnamed_addr constant [10 x i8] c"%d %d %d\0A\00", align 1
@.str.1 = private unnamed_addr constant [4 x i8] c"%d\0A\00", align 1

; Function Attrs: noinline nounwind uwtable
define dso_local i32 @main() #0 {
  %1 = alloca i32, align 4
  %2 = alloca i32, align 4
  %3 = alloca i32, align 4
  %4 = alloca i32, align 4
  %5 = alloca i32, align 4
  %6 = alloca i32, align 4
  store i32 0, i32* %1, align 4
  store i32 1, i32* %6, align 4
  br label %7

7:                                                ; preds = %63, %0
  %8 = load i32, i32* %6, align 4
  %9 = icmp sle i32 %8, 5
  br i1 %9, label %10, label %66

10:                                               ; preds = %7
  %11 = call i32 (i8*, ...) @__isoc99_scanf(i8* getelementptr inbounds ([10 x i8], [10 x i8]* @.str, i64 0, i64 0), i32* %2, i32* %3, i32* %4)
  %12 = load i32, i32* %2, align 4
  %13 = srem i32 %12, 4
  %14 = icmp eq i32 %13, 0
  br i1 %14, label %15, label %19

15:                                               ; preds = %10
  %16 = load i32, i32* %2, align 4
  %17 = srem i32 %16, 100
  %18 = icmp ne i32 %17, 0
  br i1 %18, label %27, label %19

19:                                               ; preds = %15, %10
  %20 = load i32, i32* %2, align 4
  %21 = srem i32 %20, 100
  %22 = icmp eq i32 %21, 0
  br i1 %22, label %23, label %42

23:                                               ; preds = %19
  %24 = load i32, i32* %2, align 4
  %25 = srem i32 %24, 400
  %26 = icmp eq i32 %25, 0
  br i1 %26, label %27, label %42

27:                                               ; preds = %23, %15
  %28 = load i32, i32* %3, align 4
  switch i32 %28, label %41 [
    i32 1, label %29
    i32 2, label %30
    i32 3, label %31
    i32 4, label %32
    i32 5, label %33
    i32 6, label %34
    i32 7, label %35
    i32 8, label %36
    i32 9, label %37
    i32 10, label %38
    i32 11, label %39
    i32 12, label %40
  ]

29:                                               ; preds = %27
  store i32 0, i32* %5, align 4
  br label %41

30:                                               ; preds = %27
  store i32 31, i32* %5, align 4
  br label %41

31:                                               ; preds = %27
  store i32 60, i32* %5, align 4
  br label %41

32:                                               ; preds = %27
  store i32 91, i32* %5, align 4
  br label %41

33:                                               ; preds = %27
  store i32 121, i32* %5, align 4
  br label %41

34:                                               ; preds = %27
  store i32 152, i32* %5, align 4
  br label %41

35:                                               ; preds = %27
  store i32 182, i32* %5, align 4
  br label %41

36:                                               ; preds = %27
  store i32 213, i32* %5, align 4
  br label %41

37:                                               ; preds = %27
  store i32 244, i32* %5, align 4
  br label %41

38:                                               ; preds = %27
  store i32 274, i32* %5, align 4
  br label %41

39:                                               ; preds = %27
  store i32 305, i32* %5, align 4
  br label %41

40:                                               ; preds = %27
  store i32 335, i32* %5, align 4
  br label %41

41:                                               ; preds = %27, %40, %39, %38, %37, %36, %35, %34, %33, %32, %31, %30, %29
  br label %57

42:                                               ; preds = %23, %19
  %43 = load i32, i32* %3, align 4
  switch i32 %43, label %56 [
    i32 1, label %44
    i32 2, label %45
    i32 3, label %46
    i32 4, label %47
    i32 5, label %48
    i32 6, label %49
    i32 7, label %50
    i32 8, label %51
    i32 9, label %52
    i32 10, label %53
    i32 11, label %54
    i32 12, label %55
  ]

44:                                               ; preds = %42
  store i32 0, i32* %5, align 4
  br label %56

45:                                               ; preds = %42
  store i32 31, i32* %5, align 4
  br label %56

46:                                               ; preds = %42
  store i32 59, i32* %5, align 4
  br label %56

47:                                               ; preds = %42
  store i32 90, i32* %5, align 4
  br label %56

48:                                               ; preds = %42
  store i32 120, i32* %5, align 4
  br label %56

49:                                               ; preds = %42
  store i32 151, i32* %5, align 4
  br label %56

50:                                               ; preds = %42
  store i32 181, i32* %5, align 4
  br label %56

51:                                               ; preds = %42
  store i32 212, i32* %5, align 4
  br label %56

52:                                               ; preds = %42
  store i32 243, i32* %5, align 4
  br label %56

53:                                               ; preds = %42
  store i32 273, i32* %5, align 4
  br label %56

54:                                               ; preds = %42
  store i32 304, i32* %5, align 4
  br label %56

55:                                               ; preds = %42
  store i32 334, i32* %5, align 4
  br label %56

56:                                               ; preds = %42, %55, %54, %53, %52, %51, %50, %49, %48, %47, %46, %45, %44
  br label %57

57:                                               ; preds = %56, %41
  %58 = load i32, i32* %5, align 4
  %59 = load i32, i32* %4, align 4
  %60 = add nsw i32 %58, %59
  store i32 %60, i32* %5, align 4
  %61 = load i32, i32* %5, align 4
  %62 = call i32 (i8*, ...) @printf(i8* getelementptr inbounds ([4 x i8], [4 x i8]* @.str.1, i64 0, i64 0), i32 %61)
  br label %63

63:                                               ; preds = %57
  %64 = load i32, i32* %6, align 4
  %65 = add nsw i32 %64, 1
  store i32 %65, i32* %6, align 4
  br label %7

66:                                               ; preds = %7
  ret i32 0
}

declare dso_local i32 @__isoc99_scanf(i8*, ...) #1

declare dso_local i32 @printf(i8*, ...) #1


!llvm.module.flags = !{!0}
!llvm.ident = !{!1}

!0 = !{i32 1, !"wchar_size", i32 4}
!1 = !{!"clang version 10.0.0-4ubuntu1 "}
